target datalayout = "e-m:e-p270:32:32-p271:32:32-p272:64:64-i64:64-i128:128-f80:128-n8:16:32:64-S128"
target triple = "x86_64-pc-linux-gnu"

%"class.llvm::StringRef" = type { ptr, i64 }
%"class.llvm::SmallVectorBase" = type { ptr, i32, i32 }
%"struct.llvm::omp::GV" = type { i32, i32, i32, i32, i32, i32, i32 }
%"class.llvm::ilist_iterator_w_bits" = type <{ ptr, i8, i8, [6 x i8] }>
%"class.llvm::IRBuilderBase" = type { %"class.llvm::SmallVector.19", ptr, %"class.llvm::ilist_iterator_w_bits", ptr, ptr, ptr, ptr, %"class.llvm::FastMathFlags", i8, i8, i8, %"class.llvm::ArrayRef" }
%"class.llvm::SmallVector.19" = type { %"class.llvm::SmallVectorImpl.20", %"struct.llvm::SmallVectorStorage.23" }
%"class.llvm::SmallVectorImpl.20" = type { %"class.llvm::SmallVectorTemplateBase.21" }
%"class.llvm::SmallVectorTemplateBase.21" = type { %"class.llvm::SmallVectorTemplateCommon.22" }
%"class.llvm::SmallVectorTemplateCommon.22" = type { %"class.llvm::SmallVectorBase" }
%"struct.llvm::SmallVectorStorage.23" = type { [32 x i8] }
%"class.llvm::FastMathFlags" = type { i32 }
%"class.llvm::ArrayRef" = type { ptr, i64 }
%"class.llvm::OpenMPIRBuilderConfig" = type { %"class.std::optional", %"class.std::optional", %"class.std::optional", %"class.std::optional", %"class.std::optional.29", %"class.std::optional.29", %"class.std::optional.35", %"class.llvm::SmallVector.43", i64 }
%"class.std::optional" = type { %"struct.std::_Optional_base" }
%"struct.std::_Optional_base" = type { %"struct.std::_Optional_payload" }
%"struct.std::_Optional_payload" = type { %"struct.std::_Optional_payload_base" }
%"struct.std::_Optional_payload_base" = type { %"union.std::_Optional_payload_base<bool>::_Storage", i8 }
%"union.std::_Optional_payload_base<bool>::_Storage" = type { %"struct.std::_Optional_payload_base<bool>::_Empty_byte" }
%"struct.std::_Optional_payload_base<bool>::_Empty_byte" = type { i8 }
%"class.std::optional.29" = type { %"struct.std::_Optional_base.30" }
%"struct.std::_Optional_base.30" = type { %"struct.std::_Optional_payload.32" }
%"struct.std::_Optional_payload.32" = type { %"struct.std::_Optional_payload_base.base", [7 x i8] }
%"struct.std::_Optional_payload_base.base" = type <{ %"union.std::_Optional_payload_base<llvm::StringRef>::_Storage", i8 }>
%"union.std::_Optional_payload_base<llvm::StringRef>::_Storage" = type { %"class.llvm::StringRef" }
%"class.std::optional.35" = type { %"struct.std::_Optional_base.36" }
%"struct.std::_Optional_base.36" = type { %"struct.std::_Optional_payload.38" }
%"struct.std::_Optional_payload.38" = type { %"struct.std::_Optional_payload_base.base.40", [3 x i8] }
%"struct.std::_Optional_payload_base.base.40" = type <{ %"union.std::_Optional_payload_base<llvm::omp::GV>::_Storage", i8 }>
%"union.std::_Optional_payload_base<llvm::omp::GV>::_Storage" = type { %"struct.llvm::omp::GV" }
%"class.llvm::SmallVector.43" = type { %"class.llvm::SmallVectorImpl.44", %"struct.llvm::SmallVectorStorage.47" }
%"class.llvm::SmallVectorImpl.44" = type { %"class.llvm::SmallVectorTemplateBase.45" }
%"class.llvm::SmallVectorTemplateBase.45" = type { %"class.llvm::SmallVectorTemplateCommon.46" }
%"class.llvm::SmallVectorTemplateCommon.46" = type { %"class.llvm::SmallVectorBase" }
%"struct.llvm::SmallVectorStorage.47" = type { [56 x i8] }
%"class.llvm::OpenMPIRBuilder" = type { %"class.llvm::SmallVector.76", %"class.llvm::OpenMPIRBuilderConfig", ptr, %"class.llvm::IRBuilder", %"class.llvm::StringMap", %"class.llvm::DenseMap", %"class.llvm::OffloadEntriesInfoManager", %"class.llvm::Triple", %"class.llvm::SmallVector.91", %"class.llvm::SmallVector.96", %"class.std::forward_list", %"class.llvm::StringMap.104", ptr, ptr, ptr, ptr, ptr, ptr, ptr, ptr, ptr, ptr, ptr, ptr, ptr, ptr, ptr, ptr, ptr, ptr, ptr, ptr, ptr, ptr, ptr, ptr, ptr, ptr, ptr, ptr, ptr, ptr, ptr, ptr, ptr, ptr, ptr, ptr, ptr, ptr, ptr, ptr, ptr, ptr, ptr, ptr, ptr, ptr, ptr, ptr, ptr, ptr, ptr, ptr, ptr, ptr, ptr, ptr, ptr, ptr, ptr, ptr, %"class.std::__cxx11::basic_string" }
%"class.llvm::SmallVector.76" = type { %"class.llvm::SmallVectorImpl.77", %"struct.llvm::SmallVectorStorage.80" }
%"class.llvm::SmallVectorImpl.77" = type { %"class.llvm::SmallVectorTemplateBase.78" }
%"class.llvm::SmallVectorTemplateBase.78" = type { %"class.llvm::SmallVectorTemplateCommon.79" }
%"class.llvm::SmallVectorTemplateCommon.79" = type { %"class.llvm::SmallVectorBase" }
%"struct.llvm::SmallVectorStorage.80" = type { [320 x i8] }
%"class.llvm::IRBuilder" = type { %"class.llvm::IRBuilderBase", %"class.llvm::ConstantFolder", %"class.llvm::IRBuilderDefaultInserter" }
%"class.llvm::ConstantFolder" = type { %"class.llvm::IRBuilderFolder" }
%"class.llvm::IRBuilderFolder" = type { ptr }
%"class.llvm::IRBuilderDefaultInserter" = type { ptr }
%"class.llvm::StringMap" = type { %"class.llvm::StringMapImpl" }
%"class.llvm::StringMapImpl" = type { ptr, i32, i32, i32, i32 }
%"class.llvm::DenseMap" = type <{ ptr, i32, i32, i32, [4 x i8] }>
%"class.llvm::OffloadEntriesInfoManager" = type { ptr, i32, %"class.std::map", %"class.std::map.81", %"class.llvm::StringMap.86" }
%"class.std::map" = type { %"class.std::_Rb_tree" }
%"class.std::_Rb_tree" = type { %"struct.std::_Rb_tree<llvm::TargetRegionEntryInfo, std::pair<const llvm::TargetRegionEntryInfo, unsigned int>, std::_Select1st<std::pair<const llvm::TargetRegionEntryInfo, unsigned int>>, std::less<llvm::TargetRegionEntryInfo>>::_Rb_tree_impl" }
%"struct.std::_Rb_tree<llvm::TargetRegionEntryInfo, std::pair<const llvm::TargetRegionEntryInfo, unsigned int>, std::_Select1st<std::pair<const llvm::TargetRegionEntryInfo, unsigned int>>, std::less<llvm::TargetRegionEntryInfo>>::_Rb_tree_impl" = type { [8 x i8], %"struct.std::_Rb_tree_header" }
%"struct.std::_Rb_tree_header" = type { %"struct.std::_Rb_tree_node_base", i64 }
%"struct.std::_Rb_tree_node_base" = type { i32, ptr, ptr, ptr }
%"class.std::map.81" = type { %"class.std::_Rb_tree.82" }
%"class.std::_Rb_tree.82" = type { %"struct.std::_Rb_tree<llvm::TargetRegionEntryInfo, std::pair<const llvm::TargetRegionEntryInfo, llvm::OffloadEntriesInfoManager::OffloadEntryInfoTargetRegion>, std::_Select1st<std::pair<const llvm::TargetRegionEntryInfo, llvm::OffloadEntriesInfoManager::OffloadEntryInfoTargetRegion>>, std::less<llvm::TargetRegionEntryInfo>>::_Rb_tree_impl" }
%"struct.std::_Rb_tree<llvm::TargetRegionEntryInfo, std::pair<const llvm::TargetRegionEntryInfo, llvm::OffloadEntriesInfoManager::OffloadEntryInfoTargetRegion>, std::_Select1st<std::pair<const llvm::TargetRegionEntryInfo, llvm::OffloadEntriesInfoManager::OffloadEntryInfoTargetRegion>>, std::less<llvm::TargetRegionEntryInfo>>::_Rb_tree_impl" = type { [8 x i8], %"struct.std::_Rb_tree_header" }
%"class.llvm::StringMap.86" = type { %"class.llvm::StringMapImpl" }
%"class.llvm::Triple" = type { %"class.std::__cxx11::basic_string", i32, i32, i32, i32, i32, i32 }
%"class.llvm::SmallVector.91" = type { %"class.llvm::SmallVectorImpl.92", %"struct.llvm::SmallVectorStorage.95" }
%"class.llvm::SmallVectorImpl.92" = type { %"class.llvm::SmallVectorTemplateBase.93" }
%"class.llvm::SmallVectorTemplateBase.93" = type { %"class.llvm::SmallVectorTemplateCommon.94" }
%"class.llvm::SmallVectorTemplateCommon.94" = type { %"class.llvm::SmallVectorBase" }
%"struct.llvm::SmallVectorStorage.95" = type { [1408 x i8] }
%"class.llvm::SmallVector.96" = type { %"class.llvm::SmallVectorImpl.97", %"struct.llvm::SmallVectorStorage.100" }
%"class.llvm::SmallVectorImpl.97" = type { %"class.llvm::SmallVectorTemplateBase.98" }
%"class.llvm::SmallVectorTemplateBase.98" = type { %"class.llvm::SmallVectorTemplateCommon.99" }
%"class.llvm::SmallVectorTemplateCommon.99" = type { %"class.llvm::SmallVectorBase" }
%"struct.llvm::SmallVectorStorage.100" = type { [128 x i8] }
%"class.std::forward_list" = type { %"struct.std::_Fwd_list_base" }
%"struct.std::_Fwd_list_base" = type { %"struct.std::_Fwd_list_base<llvm::CanonicalLoopInfo, std::allocator<llvm::CanonicalLoopInfo>>::_Fwd_list_impl" }
%"struct.std::_Fwd_list_base<llvm::CanonicalLoopInfo, std::allocator<llvm::CanonicalLoopInfo>>::_Fwd_list_impl" = type { %"struct.std::_Fwd_list_node_base" }
%"struct.std::_Fwd_list_node_base" = type { ptr }
%"class.llvm::StringMap.104" = type { %"class.llvm::StringMapImpl", %"class.llvm::detail::AllocatorHolder.105" }
%"class.llvm::detail::AllocatorHolder.105" = type { %"class.llvm::BumpPtrAllocatorImpl" }
%"class.llvm::BumpPtrAllocatorImpl" = type { ptr, ptr, %"class.llvm::SmallVector.107", %"class.llvm::SmallVector.112", i64, i64 }
%"class.llvm::SmallVector.107" = type { %"class.llvm::SmallVectorImpl.108", %"struct.llvm::SmallVectorStorage.111" }
%"class.llvm::SmallVectorImpl.108" = type { %"class.llvm::SmallVectorTemplateBase.109" }
%"class.llvm::SmallVectorTemplateBase.109" = type { %"class.llvm::SmallVectorTemplateCommon.110" }
%"class.llvm::SmallVectorTemplateCommon.110" = type { %"class.llvm::SmallVectorBase" }
%"struct.llvm::SmallVectorStorage.111" = type { [32 x i8] }
%"class.llvm::SmallVector.112" = type { %"class.llvm::SmallVectorImpl.113" }
%"class.llvm::SmallVectorImpl.113" = type { %"class.llvm::SmallVectorTemplateBase.114" }
%"class.llvm::SmallVectorTemplateBase.114" = type { %"class.llvm::SmallVectorTemplateCommon.115" }
%"class.llvm::SmallVectorTemplateCommon.115" = type { %"class.llvm::SmallVectorBase" }
%"class.std::__cxx11::basic_string" = type { %"struct.std::__cxx11::basic_string<char>::_Alloc_hider", i64, %union.anon.90 }
%"struct.std::__cxx11::basic_string<char>::_Alloc_hider" = type { ptr }
%union.anon.90 = type { i64, [8 x i8] }
%"class.llvm::FunctionCallee" = type { ptr, ptr }

; Function Attrs: mustprogress nounwind uwtable
define dso_local { ptr, ptr } @_ZN4llvm15OpenMPIRBuilder26createDispatchInitFunctionEjb(ptr noundef nonnull align 8 dereferenceable(3104) %0, i32 noundef %1, i1 noundef zeroext %2) #1 align 2 {
  %4 = alloca %"class.llvm::FunctionCallee", align 8
  %5 = alloca ptr, align 8
  %6 = alloca i32, align 4
  %7 = alloca i8, align 1
  %8 = alloca i32, align 4
  store ptr %0, ptr %5, align 8
  store i32 %1, ptr %6, align 4
  %9 = zext i1 %2 to i8
  store i8 %9, ptr %7, align 1
  %10 = load ptr, ptr %5, align 8
  %11 = load i32, ptr %6, align 4
  %12 = icmp eq i32 %11, 32
  br i1 %12, label %13, label %17

13:                                               ; preds = %3
  %14 = load i8, ptr %7, align 1
  %15 = trunc i8 %14 to i1
  %16 = select i1 %15, i32 75, i32 76
  br label %21

17:                                               ; preds = %3
  %18 = load i8, ptr %7, align 1
  %19 = trunc i8 %18 to i1
  %20 = select i1 %19, i32 77, i32 78
  br label %21

21:                                               ; preds = %17, %13
  %22 = phi i32 [ %16, %13 ], [ %20, %17 ]
  store i32 %22, ptr %8, align 4
  %23 = getelementptr inbounds nuw %"class.llvm::OpenMPIRBuilder", ptr %10, i32 0, i32 2
  %24 = load ptr, ptr %23, align 8
  %25 = load i32, ptr %8, align 4
  %26 = call { ptr, ptr } @_ZN4llvm15OpenMPIRBuilder26getOrCreateRuntimeFunctionERNS_6ModuleENS_3omp15RuntimeFunctionE(ptr noundef nonnull align 8 dereferenceable(3104) %10, ptr noundef nonnull align 8 dereferenceable(857) %24, i32 noundef %25)
  %27 = getelementptr inbounds nuw { ptr, ptr }, ptr %4, i32 0, i32 0
  %28 = extractvalue { ptr, ptr } %26, 0
  store ptr %28, ptr %27, align 8
  %29 = getelementptr inbounds nuw { ptr, ptr }, ptr %4, i32 0, i32 1
  %30 = extractvalue { ptr, ptr } %26, 1
  store ptr %30, ptr %29, align 8
  %31 = load { ptr, ptr }, ptr %4, align 8
  ret { ptr, ptr } %31
}