; Function Attrs: mustprogress nounwind uwtable
define dso_local { ptr, ptr } @_ZN4llvm15OpenMPIRBuilder26createDispatchInitFunctionEjb(ptr noundef nonnull align 8 dereferenceable(3104) %0, i32 noundef %1, i1 noundef zeroext %2) local_unnamed_addr #0 align 2 {
  %4 = icmp eq i32 %1, 32
  %5 = select i1 %2, i32 75, i32 76
  %6 = select i1 %2, i32 77, i32 78
  %7 = select i1 %4, i32 %5, i32 %6
  %8 = getelementptr inbounds nuw i8, ptr %0, i64 504
  %9 = load ptr, ptr %8, align 8
  %10 = tail call { ptr, ptr } @_ZN4llvm15OpenMPIRBuilder26getOrCreateRuntimeFunctionERNS_6ModuleENS_3omp15RuntimeFunctionE(ptr noundef nonnull align 8 dereferenceable(3104) %0, ptr noundef nonnull align 8 dereferenceable(857) %9, i32 noundef %7)
  ret { ptr, ptr } %10
}